target datalayout = "e-m:e-p270:32:32-p271:32:32-p272:64:64-i64:64-i128:128-f80:128-n8:16:32:64-S128"
target triple = "x86_64-pc-linux-gnu"

%"class.std::basic_ostream" = type { ptr, %"class.std::basic_ios" }
%"class.std::basic_ios" = type { %"class.std::ios_base", ptr, i8, i8, ptr, ptr, ptr, ptr }
%"class.std::ios_base" = type { ptr, i64, i64, i32, i32, i32, ptr, %"struct.std::ios_base::_Words", [8 x %"struct.std::ios_base::_Words"], i32, ptr, %"class.std::locale" }
%"struct.std::ios_base::_Words" = type { ptr, i64 }
%"class.std::locale" = type { ptr }
%"class.Stockfish::TranspositionTable" = type <{ i64, ptr, i8, [7 x i8] }>

@_ZSt4cerr = external global %"class.std::basic_ostream", align 8
@.str = private unnamed_addr constant [20 x i8] c"Failed to allocate \00", align 1
@.str.1 = private unnamed_addr constant [28 x i8] c"MB for transposition table.\00", align 1

; Function Attrs: mustprogress nounwind uwtable
define dso_local void @_ZN9Stockfish18TranspositionTable6resizeEmi(ptr noundef nonnull align 8 dereferenceable(17) %0, i64 noundef %1, i32 noundef %2) #4 align 2 {
  %4 = alloca ptr, align 8
  %5 = alloca i64, align 8
  %6 = alloca i32, align 4
  store ptr %0, ptr %4, align 8
  store i64 %1, ptr %5, align 8
  store i32 %2, ptr %6, align 4
  %7 = load ptr, ptr %4, align 8
  %8 = getelementptr inbounds %"class.Stockfish::TranspositionTable", ptr %7, i32 0, i32 1
  %9 = load ptr, ptr %8, align 8
  call void @_ZN9Stockfish24aligned_large_pages_freeEPv(ptr noundef %9)
  %10 = load i64, ptr %5, align 8
  %11 = mul i64 %10, 1024
  %12 = mul i64 %11, 1024
  %13 = udiv i64 %12, 32
  %14 = getelementptr inbounds %"class.Stockfish::TranspositionTable", ptr %7, i32 0, i32 0
  store i64 %13, ptr %14, align 8
  %15 = getelementptr inbounds %"class.Stockfish::TranspositionTable", ptr %7, i32 0, i32 0
  %16 = load i64, ptr %15, align 8
  %17 = mul i64 %16, 32
  %18 = call noundef ptr @_ZN9Stockfish25aligned_large_pages_allocEm(i64 noundef %17)
  %19 = getelementptr inbounds %"class.Stockfish::TranspositionTable", ptr %7, i32 0, i32 1
  store ptr %18, ptr %19, align 8
  %20 = getelementptr inbounds %"class.Stockfish::TranspositionTable", ptr %7, i32 0, i32 1
  %21 = load ptr, ptr %20, align 8
  %22 = icmp ne ptr %21, null
  br i1 %22, label %29, label %23

23:                                               ; preds = %3
  %24 = call noundef nonnull align 8 dereferenceable(8) ptr @_ZStlsISt11char_traitsIcEERSt13basic_ostreamIcT_ES5_PKc(ptr noundef nonnull align 8 dereferenceable(8) @_ZSt4cerr, ptr noundef @.str)
  %25 = load i64, ptr %5, align 8
  %26 = call noundef nonnull align 8 dereferenceable(8) ptr @_ZNSolsEm(ptr noundef nonnull align 8 dereferenceable(8) %24, i64 noundef %25)
  %27 = call noundef nonnull align 8 dereferenceable(8) ptr @_ZStlsISt11char_traitsIcEERSt13basic_ostreamIcT_ES5_PKc(ptr noundef nonnull align 8 dereferenceable(8) %26, ptr noundef @.str.1)
  %28 = call noundef nonnull align 8 dereferenceable(8) ptr @_ZNSolsEPFRSoS_E(ptr noundef nonnull align 8 dereferenceable(8) %27, ptr noundef @_ZSt4endlIcSt11char_traitsIcEERSt13basic_ostreamIT_T0_ES6_)
  call void @exit(i32 noundef 1) #11
  unreachable

29:                                               ; preds = %3
  %30 = load i32, ptr %6, align 4
  %31 = sext i32 %30 to i64
  call void @_ZN9Stockfish18TranspositionTable5clearEm(ptr noundef nonnull align 8 dereferenceable(17) %7, i64 noundef %31)
  ret void
}