; Function Attrs: mustprogress nounwind uwtable
define dso_local void @_ZN9Stockfish18TranspositionTable6resizeEmi(ptr noundef nonnull align 8 dereferenceable(17) %0, i64 noundef %1, i32 noundef %2) local_unnamed_addr #5 align 2 {
  %4 = getelementptr inbounds i8, ptr %0, i64 8
  %5 = load ptr, ptr %4, align 8
  tail call void @_ZN9Stockfish24aligned_large_pages_freeEPv(ptr noundef %5) #17
  %6 = shl i64 %1, 15
  %7 = and i64 %6, 576460752303390720
  store i64 %7, ptr %0, align 8
  %8 = shl nuw i64 %7, 5
  %9 = tail call noundef ptr @_ZN9Stockfish25aligned_large_pages_allocEm(i64 noundef %8) #17
  store ptr %9, ptr %4, align 8
  %.not = icmp eq ptr %9, null
  br i1 %.not, label %10, label %15

10:                                               ; preds = %3
  %11 = tail call noundef nonnull align 8 dereferenceable(8) ptr @_ZStlsISt11char_traitsIcEERSt13basic_ostreamIcT_ES5_PKc(ptr noundef nonnull align 8 dereferenceable(8) @_ZSt4cerr, ptr noundef nonnull @.str) #17
  %12 = tail call noundef nonnull align 8 dereferenceable(8) ptr @_ZNSolsEm(ptr noundef nonnull align 8 dereferenceable(8) %11, i64 noundef %1) #17
  %13 = tail call noundef nonnull align 8 dereferenceable(8) ptr @_ZStlsISt11char_traitsIcEERSt13basic_ostreamIcT_ES5_PKc(ptr noundef nonnull align 8 dereferenceable(8) %12, ptr noundef nonnull @.str.1) #17
  %14 = tail call noundef nonnull align 8 dereferenceable(8) ptr @_ZNSolsEPFRSoS_E(ptr noundef nonnull align 8 dereferenceable(8) %13, ptr noundef nonnull @_ZSt4endlIcSt11char_traitsIcEERSt13basic_ostreamIT_T0_ES6_) #17
  tail call void @exit(i32 noundef 1) #18
  unreachable

15:                                               ; preds = %3
  %16 = sext i32 %2 to i64
  tail call void @_ZN9Stockfish18TranspositionTable5clearEm(ptr noundef nonnull align 8 dereferenceable(17) %0, i64 noundef %16)
  ret void
}